; Function Attrs: mustprogress uwtable
define hidden void @_ZN2cv10PngEncoder14writeDataToBufEPvPhm(ptr noundef %0, ptr noundef readonly captures(none) %1, i64 noundef %2) #5 align 2 personality ptr @__gxx_personality_v0 {
  %4 = alloca %"class.std::__cxx11::basic_string", align 8
  %5 = alloca %"class.std::allocator.0", align 1
  %6 = icmp eq i64 %2, 0
  br i1 %6, label %33, label %7

7:                                                ; preds = %3
  %8 = tail call ptr @png_get_io_ptr(ptr noundef %0)
  %.not = icmp eq ptr %8, null
  br i1 %.not, label %12, label %9

9:                                                ; preds = %7
  %10 = getelementptr inbounds nuw i8, ptr %8, i64 72
  %11 = load ptr, ptr %10, align 8, !tbaa !228
  %.not18 = icmp eq ptr %11, null
  br i1 %.not18, label %12, label %22

12:                                               ; preds = %9, %7
  call void @llvm.lifetime.start.p0(i64 32, ptr nonnull %4) #33
  call void @llvm.lifetime.start.p0(i64 1, ptr nonnull %5) #33
  call void @_ZNSt7__cxx1112basic_stringIcSt11char_traitsIcESaIcEEC2EPKcRKS3_(ptr noundef nonnull align 8 dereferenceable(32) %4, ptr noundef nonnull @.str.9, ptr noundef nonnull align 1 dereferenceable(1) %5)
  invoke void @_ZN2cv5errorEiRKNSt7__cxx1112basic_stringIcSt11char_traitsIcESaIcEEEPKcS9_i(i32 noundef -215, ptr noundef nonnull align 8 dereferenceable(32) %4, ptr noundef nonnull @__func__._ZN2cv10PngEncoder14writeDataToBufEPvPhm, ptr noundef nonnull @.str.3, i32 noundef 842) #36
          to label %13 unwind label %14

13:                                               ; preds = %12
  unreachable

14:                                               ; preds = %12
  %15 = landingpad { ptr, i32 }
          cleanup
  %16 = load ptr, ptr %4, align 8, !tbaa !99
  %17 = getelementptr inbounds nuw i8, ptr %4, i64 16
  %18 = icmp eq ptr %16, %17
  br i1 %18, label %_ZNKSt7__cxx1112basic_stringIcSt11char_traitsIcESaIcEE11_M_is_localEv.exit.thread.i.i, label %_ZNKSt7__cxx1112basic_stringIcSt11char_traitsIcESaIcEE11_M_is_localEv.exit.i.i

_ZNKSt7__cxx1112basic_stringIcSt11char_traitsIcESaIcEE11_M_is_localEv.exit.thread.i.i: ; preds = %14
  %19 = getelementptr inbounds nuw i8, ptr %4, i64 8
  %20 = load i64, ptr %19, align 8, !tbaa !41
  %21 = icmp ult i64 %20, 16
  call void @llvm.assume(i1 %21)
  br label %_ZNSt7__cxx1112basic_stringIcSt11char_traitsIcESaIcEED2Ev.exit

_ZNKSt7__cxx1112basic_stringIcSt11char_traitsIcESaIcEE11_M_is_localEv.exit.i.i: ; preds = %14
  call void @_ZdlPv(ptr noundef %16) #32
  br label %_ZNSt7__cxx1112basic_stringIcSt11char_traitsIcESaIcEED2Ev.exit

_ZNSt7__cxx1112basic_stringIcSt11char_traitsIcESaIcEED2Ev.exit: ; preds = %_ZNKSt7__cxx1112basic_stringIcSt11char_traitsIcESaIcEE11_M_is_localEv.exit.i.i, %_ZNKSt7__cxx1112basic_stringIcSt11char_traitsIcESaIcEE11_M_is_localEv.exit.thread.i.i
  call void @llvm.lifetime.end.p0(i64 1, ptr nonnull %5) #33
  call void @llvm.lifetime.end.p0(i64 32, ptr nonnull %4) #33
  resume { ptr, i32 } %15

22:                                               ; preds = %9
  %23 = getelementptr inbounds nuw i8, ptr %11, i64 8
  %24 = load ptr, ptr %23, align 8, !tbaa !133
  %25 = load ptr, ptr %11, align 8, !tbaa !91
  %26 = ptrtoint ptr %24 to i64
  %27 = ptrtoint ptr %25 to i64
  %28 = sub i64 %26, %27
  %29 = add i64 %28, %2
  tail call void @_ZNSt6vectorIhSaIhEE6resizeEm(ptr noundef nonnull align 8 dereferenceable(24) %11, i64 noundef %29)
  %30 = load ptr, ptr %10, align 8, !tbaa !228
  %31 = load ptr, ptr %30, align 8, !tbaa !91
  %32 = getelementptr inbounds nuw i8, ptr %31, i64 %28
  tail call void @llvm.memcpy.p0.p0.i64(ptr nonnull align 1 %32, ptr align 1 %1, i64 %2, i1 false)
  br label %33

33:                                               ; preds = %3, %22
  ret void
}